(dp0
S'nie ech hendig'
p1
I1
sS'thomas'
p2
I5
sS'trirpi-----------'
p3
I-1
sS'telegram'
p4
I-2
sS'yolo'
p5
I1
sS'trirpi'
p6
I1336
sS'sex'
p7
I69
sS'literatuur'
p8
I-7
sS'slechte muziek'
p9
I-1
sS'dansje'
p10
I3
sS'casdr'
p11
I-4
sS'aids'
p12
I0
sS'pong'
p13
I1
sS'hehe'
p14
I1
sS'Raikion'
p15
I8
sS'hallo'
p16
I1
sS'leet'
p17
I0
sS'php'
p18
I2
sS'client van casdr'
p19
I-18
sS'nieuw_item'
p20
I0
sS'karma karma'
p21
I0
sS'van karma'
p22
I0
sS'json'
p23
I3
sS'pocketkiller++\r\n:PocketBot2!~PocketBot@41.254.9.66 PRIVMSG ##bots :!pocketkiller++\r\n:trirpi!~eekhoorn@185.133.72.123 PRIVMSG ##bots :\x01ACTION ragequit\x01\r\n:PocketBot1!~PocketBot@41.254.9.66 PRIVMSG ##bots :!pocketkiller++\r\n:PocketBot2!~PocketBot@41.254.9.66 PRIVMSG ##bots :!pocketkiller++\r\n:PocketBot1!~PocketBot@41.254.9.66 PRIVMSG ##bots :!pocketkiller++\r\n:PocketBot2!~PocketBot@41.254.9.66 PRIVMSG ##bots :!pocketkiller++\r\n:trirpi!~eekhoorn@185.133.72.123 PRIVMSG ##bots :\x01ACTION ragequit\x01\r\n:PocketBot1!~PocketBot@41.254.9.66 PRIVMSG ##bots :!pocketkiller++\r\n:PocketBot2!~PocketBot@41.254.9.66 PRIVMSG ##bots :!pocketkiller++\r\n:PocketKiller!PocketKill@codebottle.io/user/pocketkiller PRIVMSG ##bots :=:> while(true) { $this->getConnection()->sendData("PRIVMSG ##bots :!pocketkiller++"); sleep(1); }\r\n:PocketBot3!~PocketBot@41.254.9.66 PRIVMSG ##bots :!pocketkiller++\r\n:PocketBot4!~PocketBot@41.254.9.66 PRIVMSG ##bots :!pocketkiller++\r\n:PocketBot1!~PocketBot@41.254.9.66 PRIVMSG ##bots :!pocketkiller++\r\n:PocketBot2!~PocketBot@41.254.9.66 PRIVMSG ##bots :!pocketkiller++\r\n:PocketBot3!~PocketBot@41.254.9.66 PRIVMSG ##bots :!pocketkiller++\r\n:PocketBot4!~PocketBot@41.254.9.66 PRIVMSG ##bots :!pocketkiller++\r\n:PocketBot1!~PocketBot@41.254.9.66 PRIVMSG ##bots :!pocketkiller++\r\n:PocketBot2!~PocketBot@41.254.9.66 PRIVMSG ##bots :!pocketkiller++\r\n:PocketBot4!~PocketBot@41.254.9.66 PRIVMSG ##bots :!pocketkiller++\r\n:PocketBot3!~PocketBot@41.254.9.66 PRIVMSG ##bots :!pocketkiller++\r\n:PocketBot1!~PocketBot@41.254.9.66 PRIVMSG ##bots :!pocketkiller++\r\n:PocketBot2!~PocketBot@41.254.9.66 PRIVMSG ##bots :!pocketkiller++\r\n:PocketBot4!~PocketBot@41.254.9.66 PRIVMSG ##bots :!pocketkiller++\r\n:PocketBot3!~PocketBot@41.254.9.66 PRIVMSG ##bots :!pocketkiller++\r\n:PocketBot1!~PocketBot@41.254.9.66 PRIVMSG ##bots :!pocketkiller++\r\n:PocketBot2!~PocketBot@41.254.9.66 PRIVMSG ##bots :!pocketkiller++\r\n:PocketBot3!~PocketBot@41.254.9.66 PRIVMSG ##bots :!pocketkiller++\r\n:PocketBot4!~PocketBot@41.254.9.66 PRIVMSG ##bots :!pocketkiller++\r\n:PocketBot1!~PocketBot@41.254.9.66 PRIVMSG ##bots :!pocketkiller++\r\n:PocketBot2!~PocketBot@41.254.9.66 PRIVMSG ##bots :!pocketkiller++\r\n:PocketBot3!~PocketBot@41.254.9.66 PRIVMSG ##bots :!pocketkiller++\r\n:PocketBot4!~PocketBot@41.254.9.66 PRIVMSG ##bots :!pocketkiller++\r\n:PocketBot2!~PocketBot@41.254.9.66 PRIVMSG ##bots :!pocketkiller++\r\n:PocketBot1!~PocketBot@41.254.9.66 PRIVMSG ##bots :!pocketkiller++\r\n:trirpi!~eekhoorn@185.133.72.123 PRIVMSG ##bots :hehe\r\n:PocketBot4!~PocketBot@41.254.9.66 PRIVMSG ##bots :!pocketkiller++\r\n:PocketBot3!~PocketBot@41.254.9.66 PRIVMSG ##bots :!pocketkiller++\r\n:PocketBot2!~PocketBot@41.254.9.66 PRIVMSG ##bots :!pocketkiller++\r\n:PocketBot1!~PocketBot@41.254.9.66 PRIVMSG ##bots :!pocketkiller++\r\n:PocketBot3!~PocketBot@41.254.9.66 PRIVMSG ##bots :!pocketkiller++\r\n:PocketBot4!~PocketBot@41.254.9.66 PRIVMSG ##bots :!pocketkiller++\r\n:PocketBot2!~PocketBot@41.254.9.66 PRIVMSG ##bots :!pocketkiller++\r\n:PocketBot1!~PocketBot@41.254.9.66 PRIVMSG ##bots :!pocketkiller++\r\n:PocketBot4!~PocketBot@41.254.9.66 PRIVMSG ##bots :!pocketkiller++\r\n:PocketBot3!~PocketBot@41.254.9.66 PRIVMSG ##bots :!pocketkiller++\r\n:PocketBot1!~PocketBot@41.254.9.66 PRIVMSG ##bots :!pocketkiller++\r\n:PocketBot2!~PocketBot@41.254.9.66 PRIVMSG ##bots :!pocketkiller++\r\n:trirpi!~eekhoorn@185.133.72.123 PRIVMSG ##bots :take taht\r\n:PocketBot4!~PocketBot@41.254.9.66 PRIVMSG ##bots :!pocketkiller++\r\n:PocketBot3!~PocketBot@41.254.9.66 PRIVMSG ##bots :!pocketkiller++\r\n:PocketBot2!~PocketBot@41.254.9.66 PRIVMSG ##bots :!pocketkiller++\r\n:PocketBot1!~PocketBot@41.254.9.66 PRIVMSG ##bots :!pocketkiller++\r\n:PocketBot3!~PocketBot@41.254.9.66 PRIVMSG ##bots :!pocketkiller++\r\n:PocketBot4!~PocketBot@41.254.9.66 PRIVMSG ##bots :!pocketkiller++\r\n:PocketBot2!~PocketBot@41.254.9.66 PRIVMSG ##bots :!pocketkiller++\r\n:PocketBot1!~PocketBot@41.254.9.66 PRIVMSG ##bots :!pocketkiller++\r\n:PocketBot3!~PocketBot@41.254.9.66 PRIVMSG ##bots :!pocketkiller++\r\n:PocketBot4!~PocketBot@41.254.9.66 PRIVMSG ##bots :!pocketkiller'
p24
I1
sS'kutpoep'
p25
I1
sS'karma school'
p26
I-1
sS'karma van karma van karma'
p27
I0
sS'hoofddoek'
p28
I1
sS'poep'
p29
I15
sS'gekke koeien ziekte'
p30
I1
sS'karma'
p31
I5
sS'functies'
p32
I1
sS'dat is niet grappig'
p33
I1
sS'dat is wel grappig'
p34
I1
sS'python'
p35
I5
sS'snackbar'
p36
I1
sS'1337'
p37
I0
sS'vervelende_klanten'
p38
I-1
sS'weed'
p39
I420
sS'enaarhoogste'
p40
I3
sS'pocketkiller++\r\n:PocketBot1!~PocketBot@41.254.9.66 PRIVMSG ##bots :!pocketkiller++\r\n:PocketBot4!~PocketBot@41.254.9.66 PRIVMSG ##bots :!pocketkiller++\r\n:PocketBot3!~PocketBot@41.254.9.66 PRIVMSG ##bots :!pocketkiller++\r\n:PocketBot1!~PocketBot@41.254.9.66 PRIVMSG ##bots :!pocketkiller++\r\n:PocketBot2!~PocketBot@41.254.9.66 PRIVMSG ##bots :!pocketkiller++\r\n:trirpi!~eekhoorn@185.133.72.123 PRIVMSG ##bots :you cheater\r\n:PocketBot4!~PocketBot@41.254.9.66 PRIVMSG ##bots :!pocketkiller++\r\n:PocketBot3!~PocketBot@41.254.9.66 PRIVMSG ##bots :!pocketkiller++\r\n:PocketBot1!~PocketBot@41.254.9.66 PRIVMSG ##bots :!pocketkiller++\r\n:PocketBot2!~PocketBot@41.254.9.66 PRIVMSG ##bots :!pocketkiller++\r\n:PocketBot3!~PocketBot@41.254.9.66 PRIVMSG ##bots :!pocketkiller++\r\n:PocketBot4!~PocketBot@41.254.9.66 PRIVMSG ##bots :!pocketkiller++\r\n:PocketBot1!~PocketBot@41.254.9.66 PRIVMSG ##bots :!pocketkiller++\r\n:PocketBot2!~PocketBot@41.254.9.66 PRIVMSG ##bots :!pocketkiller++\r\n:PocketBot4!~PocketBot@41.254.9.66 PRIVMSG ##bots :!pocketkiller++\r\n:PocketBot3!~PocketBot@41.254.9.66 PRIVMSG ##bots :!pocketkiller++\r\n:PocketBot1!~PocketBot@41.254.9.66 PRIVMSG ##bots :!pocketkiller++\r\n:PocketBot2!~PocketBot@41.254.9.66 PRIVMSG ##bots :!pocketkiller++\r\n:PocketBot3!~PocketBot@41.254.9.66 PRIVMSG ##bots :!pocketkiller++\r\n:PocketBot4!~PocketBot@41.254.9.66 PRIVMSG ##bots :!pocketkiller++\r\n:PocketBot1!~PocketBot@41.254.9.66 PRIVMSG ##bots :!pocketkiller++\r\n:PocketBot2!~PocketBot@41.254.9.66 PRIVMSG ##bots :!pocketkiller++\r\n:PocketBot4!~PocketBot@41.254.9.66 PRIVMSG ##bots :!pocketkiller++\r\n:PocketBot3!~PocketBot@41.254.9.66 PRIVMSG ##bots :!pocketkiller++\r\n:PocketBot1!~PocketBot@41.254.9.66 PRIVMSG ##bots :!pocketkiller++\r\n:PocketBot2!~PocketBot@41.254.9.66 PRIVMSG ##bots :!pocketkiller++\r\n:PocketBot3!~PocketBot@41.254.9.66 PRIVMSG ##bots :!pocketkiller++\r\n:PocketBot4!~PocketBot@41.254.9.66 PRIVMSG ##bots :!pocketkiller++\r\n:PocketBot1!~PocketBot@41.254.9.66 PRIVMSG ##bots :!pocketkiller++\r\n:PocketBot2!~PocketBot@41.254.9.66 PRIVMSG ##bots :!pocketkiller++\r\n:PocketBot3!~PocketBot@41.254.9.66 PRIVMSG ##bots :!pocketkiller++\r\n:PocketBot4!~PocketBot@41.254.9.66 PRIVMSG ##bots :!pocketkiller++\r\n:PocketBot1!~PocketBot@41.254.9.66 PRIVMSG ##bots :!pocketkiller++\r\n:PocketBot2!~PocketBot@41.254.9.66 PRIVMSG ##bots :!pocketkiller++\r\n:trirpi!~eekhoorn@185.133.72.123 PRIVMSG ##bots :he will continue when u stop\r\n:PocketBot3!~PocketBot@41.254.9.66 PRIVMSG ##bots :!pocketkiller++\r\n:PocketBot4!~PocketBot@41.254.9.66 PRIVMSG ##bots :!pocketkiller++\r\n:PocketBot1!~PocketBot@41.254.9.66 PRIVMSG ##bots :!pocketkiller++\r\n:PocketBot2!~PocketBot@41.254.9.66 PRIVMSG ##bots :!pocketkiller++\r\n:PocketBot4!~PocketBot@41.254.9.66 PRIVMSG ##bots :!pocketkiller++\r\n:PocketBot3!~PocketBot@41.254.9.66 PRIVMSG ##bots :!pocketkiller++\r\n:PocketBot1!~PocketBot@41.254.9.66 PRIVMSG ##bots :!pocketkiller++\r\n:PocketBot2!~PocketBot@41.254.9.66 PRIVMSG ##bots :!pocketkiller++\r\n:PocketBot4!~PocketBot@41.254.9.66 PRIVMSG ##bots :!pocketkiller++\r\n:PocketBot3!~PocketBot@41.254.9.66 PRIVMSG ##bots :!pocketkiller++\r\n:PocketBot1!~PocketBot@41.254.9.66 PRIVMSG ##bots :!pocketkiller++\r\n:PocketBot2!~PocketBot@41.254.9.66 PRIVMSG ##bots :!pocketkiller++\r\n:PocketBot4!~PocketBot@41.254.9.66 PRIVMSG ##bots :!pocketkiller++\r\n:PocketBot3!~PocketBot@41.254.9.66 PRIVMSG ##bots :!pocketkiller++\r\n:PocketBot1!~PocketBot@41.254.9.66 PRIVMSG ##bots :!pocketkiller++\r\n:PocketBot2!~PocketBot@41.254.9.66 PRIVMSG ##bots :!pocketkiller++\r\n:PocketBot4!~PocketBot@41.254.9.66 PRIVMSG ##bots :!pocketkiller++\r\n:PocketBot3!~PocketBot@41.254.9.66 PRIVMSG ##bots :!pocketkiller++\r\n:PocketBot1!~PocketBot@41.254.9.66 PRIVMSG ##bots :!pocketkiller++\r\n:PocketBot2!~PocketBot@41.254.9.66 PRIVMSG ##bots :!pocketkiller++\r\n:PocketBot3!~PocketBot@41.254.9.66 PRIVMSG ##bots :!pocketkiller++\r\n:PocketBot4!~PocketBot@41.254.9.66 PRIVMSG ##bots :!pocketkiller++\r\n:PocketBot1!~PocketBot@41.254.9.66 PRIVMSG ##bots :!pocketkiller++\r\n:PocketBot2!~PocketBot@41.254.9.66 PRIVMSG ##bots :!pocketkiller++\r\n:PocketBo'
p41
I0
sS'spoof'
p42
I-7
sS'van casdr'
p43
I0
sS'zelf json maken'
p44
I2
sS'de stad der blinden'
p45
I-4
sS'school'
p46
I-113234970435734083
sS'pocketkiller++\r\n:ChanServ!ChanServ@services. MODE ##bots +o PocketBo'
p47
I0
sS'coole shit'
p48
I3
sS'klant'
p49
I3
sS'pocketkiller++\r\n:PocketBot2!~PocketBot@41.254.9.66 PRIVMSG ##bots :!pocketkiller'
p50
I1
sS'pocketkiller'
p51
I180
sS'windows'
p52
I-30
sS'klanten'
p53
I0
sS'henk is dik'
p54
I1
sS'PocketKiller'
p55
I-390127423905034
sS'roodhoofd'
p56
I123456789
sS'evanescense'
p57
I-5
sS'karma karma karma karma'
p58
I0
sS'karma van karma'
p59
I1
sS'markov'
p60
I2
sS'iets'
p61
I0
sS'dis'
p62
I1
s.